; Function Attrs: null_pointer_is_valid sspstrong uwtable
define internal fastcc void @dissect_extended_chunk_data_leader(ptr noundef %0, ptr noundef %1, i32 noundef range(i32 8, 21) %2) unnamed_addr #0 {
  %4 = load i32, ptr @hf_gvsp_fieldinfo, align 4
  %5 = load i32, ptr @ett_gvsp_fieldinfo, align 4
  %6 = tail call ptr @proto_tree_add_bitmask(ptr noundef %0, ptr noundef %1, i32 noundef %2, i32 noundef %4, i32 noundef %5, ptr noundef nonnull @fieldinfo_fields, i32 noundef 0)
  %7 = load i32, ptr @hf_gvsp_genericflags, align 4
  %8 = add nuw nsw i32 %2, 1
  %9 = tail call ptr @proto_tree_add_item(ptr noundef %0, i32 noundef %7, ptr noundef %1, i32 noundef %8, i32 noundef 1, i32 noundef 0)
  %10 = load i32, ptr @hf_gvsp_payloadtype, align 4
  %11 = add nuw nsw i32 %2, 2
  %12 = tail call ptr @proto_tree_add_item(ptr noundef %0, i32 noundef %10, ptr noundef %1, i32 noundef %11, i32 noundef 2, i32 noundef 0)
  %13 = load i32, ptr @hf_gvsp_timestamp, align 4
  %14 = add nuw nsw i32 %2, 4
  %15 = tail call ptr @proto_tree_add_item(ptr noundef %0, i32 noundef %13, ptr noundef %1, i32 noundef %14, i32 noundef 8, i32 noundef 0)
  %16 = add nuw nsw i32 %2, 12
  %17 = load i32, ptr @hf_gvsp_pixelformat, align 4
  %18 = load i32, ptr @ett_gvsp_pixelformat, align 4
  %19 = tail call ptr @proto_tree_add_bitmask(ptr noundef %0, ptr noundef %1, i32 noundef %16, i32 noundef %17, i32 noundef %18, ptr noundef nonnull @pixelformat_fields, i32 noundef 0)
  %20 = add nuw nsw i32 %2, 16
  %21 = load i32, ptr @hf_gvsp_sizex, align 4
  %22 = tail call ptr @proto_tree_add_item(ptr noundef %0, i32 noundef %21, ptr noundef %1, i32 noundef %20, i32 noundef 4, i32 noundef 0)
  %23 = load i32, ptr @hf_gvsp_sizey, align 4
  %24 = add nuw nsw i32 %2, 20
  %25 = tail call ptr @proto_tree_add_item(ptr noundef %0, i32 noundef %23, ptr noundef %1, i32 noundef %24, i32 noundef 4, i32 noundef 0)
  %26 = load i32, ptr @hf_gvsp_offsetx, align 4
  %27 = add nuw nsw i32 %2, 24
  %28 = tail call ptr @proto_tree_add_item(ptr noundef %0, i32 noundef %26, ptr noundef %1, i32 noundef %27, i32 noundef 4, i32 noundef 0)
  %29 = load i32, ptr @hf_gvsp_offsety, align 4
  %30 = add nuw nsw i32 %2, 28
  %31 = tail call ptr @proto_tree_add_item(ptr noundef %0, i32 noundef %29, ptr noundef %1, i32 noundef %30, i32 noundef 4, i32 noundef 0)
  %32 = load i32, ptr @hf_gvsp_paddingx, align 4
  %33 = or disjoint i32 %2, 32
  %34 = tail call ptr @proto_tree_add_item(ptr noundef %0, i32 noundef %32, ptr noundef %1, i32 noundef %33, i32 noundef 2, i32 noundef 0)
  %35 = load i32, ptr @hf_gvsp_paddingy, align 4
  %36 = add nuw nsw i32 %2, 34
  %37 = tail call ptr @proto_tree_add_item(ptr noundef %0, i32 noundef %35, ptr noundef %1, i32 noundef %36, i32 noundef 2, i32 noundef 0)
  ret void
}